target datalayout = "e-m:e-p270:32:32-p271:32:32-p272:64:64-i64:64-i128:128-f80:128-n8:16:32:64-S128"
target triple = "x86_64-pc-linux-gnu"

%struct._GPtrArray = type { ptr, i32 }
%struct.field_info = type { ptr, i32, i32, i32, i32, i32, i32, ptr, ptr, ptr, i32, i32 }
%struct._GSList = type { ptr, ptr }
%struct._drange = type { ptr, i8, i32, i32, i32 }
%struct._drange_node = type { i32, i32, i32, i32 }

@.str.57 = private unnamed_addr constant [8 x i8] c"DFilter\00", align 1
@.str.58 = private unnamed_addr constant [20 x i8] c"epan/dfilter/dfvm.c\00", align 1
@.str.60 = private unnamed_addr constant [31 x i8] c"assertion \22not reached\22 failed\00", align 1
@__func__.drange_contains_layer = private unnamed_addr constant [22 x i8] c"drange_contains_layer\00", align 1

; Function Attrs: nounwind uwtable
define internal zeroext i1 @drange_contains_layer(ptr noundef %0, i32 noundef %1, i32 noundef %2) #0 {
  %4 = alloca i1, align 1
  %5 = alloca ptr, align 8
  %6 = alloca i32, align 4
  %7 = alloca i32, align 4
  %8 = alloca ptr, align 8
  %9 = alloca ptr, align 8
  %10 = alloca i32, align 4
  %11 = alloca i32, align 4
  store ptr %0, ptr %5, align 8
  store i32 %1, ptr %6, align 4
  store i32 %2, ptr %7, align 4
  %12 = load ptr, ptr %5, align 8
  %13 = getelementptr inbounds %struct._drange, ptr %12, i32 0, i32 0
  %14 = load ptr, ptr %13, align 8
  store ptr %14, ptr %9, align 8
  br label %15

15:                                               ; preds = %79, %3
  %16 = load ptr, ptr %9, align 8
  %17 = icmp ne ptr %16, null
  br i1 %17, label %18, label %81

18:                                               ; preds = %15
  %19 = load ptr, ptr %9, align 8
  %20 = getelementptr inbounds %struct._GSList, ptr %19, i32 0, i32 0
  %21 = load ptr, ptr %20, align 8
  store ptr %21, ptr %8, align 8
  %22 = load ptr, ptr %8, align 8
  %23 = getelementptr inbounds %struct._drange_node, ptr %22, i32 0, i32 0
  %24 = load i32, ptr %23, align 4
  store i32 %24, ptr %10, align 4
  %25 = load i32, ptr %10, align 4
  %26 = icmp slt i32 %25, 0
  br i1 %26, label %27, label %32

27:                                               ; preds = %18
  %28 = load i32, ptr %7, align 4
  %29 = add i32 %28, 1
  %30 = load i32, ptr %10, align 4
  %31 = add i32 %30, %29
  store i32 %31, ptr %10, align 4
  br label %32

32:                                               ; preds = %27, %18
  %33 = load ptr, ptr %8, align 8
  %34 = getelementptr inbounds %struct._drange_node, ptr %33, i32 0, i32 3
  %35 = load i32, ptr %34, align 4
  %36 = icmp eq i32 %35, 1
  br i1 %36, label %37, label %44

37:                                               ; preds = %32
  %38 = load i32, ptr %10, align 4
  %39 = load ptr, ptr %8, align 8
  %40 = getelementptr inbounds %struct._drange_node, ptr %39, i32 0, i32 1
  %41 = load i32, ptr %40, align 4
  %42 = add i32 %38, %41
  %43 = sub i32 %42, 1
  store i32 %43, ptr %11, align 4
  br label %62

44:                                               ; preds = %32
  %45 = load ptr, ptr %8, align 8
  %46 = getelementptr inbounds %struct._drange_node, ptr %45, i32 0, i32 3
  %47 = load i32, ptr %46, align 4
  %48 = icmp eq i32 %47, 2
  br i1 %48, label %49, label %53

49:                                               ; preds = %44
  %50 = load ptr, ptr %8, align 8
  %51 = getelementptr inbounds %struct._drange_node, ptr %50, i32 0, i32 2
  %52 = load i32, ptr %51, align 4
  store i32 %52, ptr %11, align 4
  br label %61

53:                                               ; preds = %44
  %54 = load ptr, ptr %8, align 8
  %55 = getelementptr inbounds %struct._drange_node, ptr %54, i32 0, i32 3
  %56 = load i32, ptr %55, align 4
  %57 = icmp eq i32 %56, 3
  br i1 %57, label %58, label %59

58:                                               ; preds = %53
  store i32 2147483647, ptr %11, align 4
  br label %60

59:                                               ; preds = %53
  call void (ptr, i32, ptr, i64, ptr, ptr, ...) @ws_log_fatal_full(ptr noundef @.str.57, i32 noundef 7, ptr noundef @.str.58, i64 noundef 769, ptr noundef @__func__.drange_contains_layer, ptr noundef @.str.60) #5
  unreachable

60:                                               ; preds = %58
  br label %61

61:                                               ; preds = %60, %49
  br label %62

62:                                               ; preds = %61, %37
  %63 = load i32, ptr %6, align 4
  %64 = load i32, ptr %10, align 4
  %65 = icmp sge i32 %63, %64
  br i1 %65, label %66, label %71

66:                                               ; preds = %62
  %67 = load i32, ptr %6, align 4
  %68 = load i32, ptr %11, align 4
  %69 = icmp sle i32 %67, %68
  br i1 %69, label %70, label %71

70:                                               ; preds = %66
  store i1 true, ptr %4, align 1
  br label %82

71:                                               ; preds = %66, %62
  %72 = load ptr, ptr %9, align 8
  %73 = icmp ne ptr %72, null
  br i1 %73, label %74, label %78

74:                                               ; preds = %71
  %75 = load ptr, ptr %9, align 8
  %76 = getelementptr inbounds %struct._GSList, ptr %75, i32 0, i32 1
  %77 = load ptr, ptr %76, align 8
  br label %79

78:                                               ; preds = %71
  br label %79

79:                                               ; preds = %78, %74
  %80 = phi ptr [ %77, %74 ], [ null, %78 ]
  store ptr %80, ptr %9, align 8
  br label %15, !llvm.loop !25

81:                                               ; preds = %15
  store i1 false, ptr %4, align 1
  br label %82

82:                                               ; preds = %81, %70
  %83 = load i1, ptr %4, align 1
  ret i1 %83
}

; Function Attrs: nounwind uwtable
define hidden ptr @dfvm_get_raw_fvalue(ptr noundef %0) #0 {
  %2 = alloca ptr, align 8
  %3 = alloca ptr, align 8
  %4 = alloca ptr, align 8
  %5 = alloca ptr, align 8
  %6 = alloca i32, align 4
  %7 = alloca i32, align 4
  store ptr %0, ptr %3, align 8
  %8 = load ptr, ptr %3, align 8
  %9 = getelementptr inbounds %struct.field_info, ptr %8, i32 0, i32 8
  %10 = load ptr, ptr %9, align 8
  %11 = load ptr, ptr %3, align 8
  %12 = getelementptr inbounds %struct.field_info, ptr %11, i32 0, i32 1
  %13 = load i32, ptr %12, align 8
  %14 = call i32 @tvb_captured_length_remaining(ptr noundef %10, i32 noundef %13)
  store i32 %14, ptr %7, align 4
  %15 = load i32, ptr %7, align 4
  %16 = icmp slt i32 %15, 0
  br i1 %16, label %17, label %18

17:                                               ; preds = %1
  store ptr null, ptr %2, align 8
  br label %44

18:                                               ; preds = %1
  %19 = load ptr, ptr %3, align 8
  %20 = getelementptr inbounds %struct.field_info, ptr %19, i32 0, i32 2
  %21 = load i32, ptr %20, align 4
  store i32 %21, ptr %6, align 4
  %22 = load i32, ptr %6, align 4
  %23 = load i32, ptr %7, align 4
  %24 = icmp sgt i32 %22, %23
  br i1 %24, label %25, label %27

25:                                               ; preds = %18
  %26 = load i32, ptr %7, align 4
  store i32 %26, ptr %6, align 4
  br label %27

27:                                               ; preds = %25, %18
  %28 = call ptr @g_byte_array_new()
  store ptr %28, ptr %4, align 8
  %29 = load ptr, ptr %4, align 8
  %30 = load ptr, ptr %3, align 8
  %31 = getelementptr inbounds %struct.field_info, ptr %30, i32 0, i32 8
  %32 = load ptr, ptr %31, align 8
  %33 = load ptr, ptr %3, align 8
  %34 = getelementptr inbounds %struct.field_info, ptr %33, i32 0, i32 1
  %35 = load i32, ptr %34, align 8
  %36 = load i32, ptr %6, align 4
  %37 = call ptr @tvb_get_ptr(ptr noundef %32, i32 noundef %35, i32 noundef %36)
  %38 = load i32, ptr %6, align 4
  %39 = call ptr @g_byte_array_append(ptr noundef %29, ptr noundef %37, i32 noundef %38)
  %40 = call ptr @fvalue_new(i32 noundef 30)
  store ptr %40, ptr %5, align 8
  %41 = load ptr, ptr %5, align 8
  %42 = load ptr, ptr %4, align 8
  call void @fvalue_set_byte_array(ptr noundef %41, ptr noundef %42)
  %43 = load ptr, ptr %5, align 8
  store ptr %43, ptr %2, align 8
  br label %44

44:                                               ; preds = %27, %17
  %45 = load ptr, ptr %2, align 8
  ret ptr %45
}

; Function Attrs: nounwind uwtable
define internal i64 @filter_finfo_fvalues(ptr noundef %0, ptr noundef %1, ptr noundef %2, i1 noundef zeroext %3) #0 {
  %5 = alloca ptr, align 8
  %6 = alloca ptr, align 8
  %7 = alloca ptr, align 8
  %8 = alloca i8, align 1
  %9 = alloca i32, align 4
  %10 = alloca ptr, align 8
  %11 = alloca ptr, align 8
  %12 = alloca ptr, align 8
  %13 = alloca i32, align 4
  %14 = alloca i8, align 1
  %15 = alloca i32, align 4
  %16 = alloca i64, align 8
  %17 = alloca i32, align 4
  store ptr %0, ptr %5, align 8
  store ptr %1, ptr %6, align 8
  store ptr %2, ptr %7, align 8
  %18 = zext i1 %3 to i8
  store i8 %18, ptr %8, align 1
  store i32 -1, ptr %13, align 4
  store i8 0, ptr %14, align 1
  store i64 0, ptr %16, align 8
  %19 = load ptr, ptr %6, align 8
  call void @g_ptr_array_sort(ptr noundef %19, ptr noundef @compare_finfo_layer)
  %20 = load ptr, ptr %6, align 8
  %21 = getelementptr inbounds %struct._GPtrArray, ptr %20, i32 0, i32 0
  %22 = load ptr, ptr %21, align 8
  %23 = load ptr, ptr %6, align 8
  %24 = getelementptr inbounds %struct._GPtrArray, ptr %23, i32 0, i32 1
  %25 = load i32, ptr %24, align 8
  %26 = sub i32 %25, 1
  %27 = zext i32 %26 to i64
  %28 = getelementptr ptr, ptr %22, i64 %27
  %29 = load ptr, ptr %28, align 8
  store ptr %29, ptr %10, align 8
  %30 = load ptr, ptr %10, align 8
  %31 = getelementptr inbounds %struct.field_info, ptr %30, i32 0, i32 11
  %32 = load i32, ptr %31, align 4
  store i32 %32, ptr %9, align 4
  store i32 0, ptr %17, align 4
  br label %33

33:                                               ; preds = %106, %4
  %34 = load i32, ptr %17, align 4
  %35 = load ptr, ptr %6, align 8
  %36 = getelementptr inbounds %struct._GPtrArray, ptr %35, i32 0, i32 1
  %37 = load i32, ptr %36, align 8
  %38 = icmp ult i32 %34, %37
  br i1 %38, label %39, label %109

39:                                               ; preds = %33
  %40 = load ptr, ptr %6, align 8
  %41 = getelementptr inbounds %struct._GPtrArray, ptr %40, i32 0, i32 0
  %42 = load ptr, ptr %41, align 8
  %43 = load i32, ptr %17, align 4
  %44 = zext i32 %43 to i64
  %45 = getelementptr ptr, ptr %42, i64 %44
  %46 = load ptr, ptr %45, align 8
  store ptr %46, ptr %11, align 8
  %47 = load ptr, ptr %11, align 8
  %48 = getelementptr inbounds %struct.field_info, ptr %47, i32 0, i32 11
  %49 = load i32, ptr %48, align 4
  store i32 %49, ptr %15, align 4
  %50 = load i32, ptr %13, align 4
  %51 = load i32, ptr %15, align 4
  %52 = icmp eq i32 %50, %51
  br i1 %52, label %53, label %76

53:                                               ; preds = %39
  %54 = load i8, ptr %14, align 1
  %55 = trunc i8 %54 to i1
  br i1 %55, label %56, label %75

56:                                               ; preds = %53
  %57 = load ptr, ptr %5, align 8
  %58 = icmp ne ptr %57, null
  br i1 %58, label %59, label %72

59:                                               ; preds = %56
  %60 = load i8, ptr %8, align 1
  %61 = trunc i8 %60 to i1
  br i1 %61, label %62, label %65

62:                                               ; preds = %59
  %63 = load ptr, ptr %11, align 8
  %64 = call ptr @dfvm_get_raw_fvalue(ptr noundef %63)
  store ptr %64, ptr %12, align 8
  br label %69

65:                                               ; preds = %59
  %66 = load ptr, ptr %11, align 8
  %67 = getelementptr inbounds %struct.field_info, ptr %66, i32 0, i32 9
  %68 = load ptr, ptr %67, align 8
  store ptr %68, ptr %12, align 8
  br label %69

69:                                               ; preds = %65, %62
  %70 = load ptr, ptr %5, align 8
  %71 = load ptr, ptr %12, align 8
  call void @df_cell_append(ptr noundef %70, ptr noundef %71)
  br label %72

72:                                               ; preds = %69, %56
  %73 = load i64, ptr %16, align 8
  %74 = add i64 %73, 1
  store i64 %74, ptr %16, align 8
  br label %75

75:                                               ; preds = %72, %53
  br label %105

76:                                               ; preds = %39
  %77 = load i32, ptr %15, align 4
  store i32 %77, ptr %13, align 4
  %78 = load ptr, ptr %7, align 8
  %79 = load i32, ptr %15, align 4
  %80 = load i32, ptr %9, align 4
  %81 = call zeroext i1 @drange_contains_layer(ptr noundef %78, i32 noundef %79, i32 noundef %80)
  %82 = zext i1 %81 to i8
  store i8 %82, ptr %14, align 1
  %83 = load i8, ptr %14, align 1
  %84 = trunc i8 %83 to i1
  br i1 %84, label %85, label %104

85:                                               ; preds = %76
  %86 = load ptr, ptr %5, align 8
  %87 = icmp ne ptr %86, null
  br i1 %87, label %88, label %101

88:                                               ; preds = %85
  %89 = load i8, ptr %8, align 1
  %90 = trunc i8 %89 to i1
  br i1 %90, label %91, label %94

91:                                               ; preds = %88
  %92 = load ptr, ptr %11, align 8
  %93 = call ptr @dfvm_get_raw_fvalue(ptr noundef %92)
  store ptr %93, ptr %12, align 8
  br label %98

94:                                               ; preds = %88
  %95 = load ptr, ptr %11, align 8
  %96 = getelementptr inbounds %struct.field_info, ptr %95, i32 0, i32 9
  %97 = load ptr, ptr %96, align 8
  store ptr %97, ptr %12, align 8
  br label %98

98:                                               ; preds = %94, %91
  %99 = load ptr, ptr %5, align 8
  %100 = load ptr, ptr %12, align 8
  call void @df_cell_append(ptr noundef %99, ptr noundef %100)
  br label %101

101:                                              ; preds = %98, %85
  %102 = load i64, ptr %16, align 8
  %103 = add i64 %102, 1
  store i64 %103, ptr %16, align 8
  br label %104

104:                                              ; preds = %101, %76
  br label %105

105:                                              ; preds = %104, %75
  br label %106

106:                                              ; preds = %105
  %107 = load i32, ptr %17, align 4
  %108 = add i32 %107, 1
  store i32 %108, ptr %17, align 4
  br label %33, !llvm.loop !24

109:                                              ; preds = %33
  %110 = load i64, ptr %16, align 8
  ret i64 %110
}