; Function Attrs: nounwind uwtable
define internal fastcc i64 @filter_finfo_fvalues(ptr noundef %0, ptr noundef nonnull %1, ptr noundef nonnull readonly captures(none) %2, i1 noundef zeroext %3) unnamed_addr #2 {
  tail call void @g_ptr_array_sort(ptr noundef nonnull %1, ptr noundef nonnull @compare_finfo_layer) #11
  %5 = getelementptr inbounds nuw i8, ptr %1, i64 8
  %6 = load i32, ptr %5, align 8
  %.not53 = icmp eq i32 %6, 0
  br i1 %.not53, label %._crit_edge, label %.lr.ph

.lr.ph:                                           ; preds = %4
  %7 = load ptr, ptr %1, align 8
  %8 = add i32 %6, -1
  %9 = zext i32 %8 to i64
  %10 = getelementptr ptr, ptr %7, i64 %9
  %11 = load ptr, ptr %10, align 8
  %12 = getelementptr inbounds nuw i8, ptr %11, i64 60
  %13 = load i32, ptr %12, align 4
  %14 = add i32 %13, 1
  %.not = icmp eq ptr %0, null
  br label %15

15:                                               ; preds = %.lr.ph, %drange_contains_layer.exit.thread
  %indvars.iv = phi i64 [ 0, %.lr.ph ], [ %indvars.iv.next, %drange_contains_layer.exit.thread ]
  %.03251 = phi i64 [ 0, %.lr.ph ], [ %.1, %drange_contains_layer.exit.thread ]
  %.03550 = phi i1 [ false, %.lr.ph ], [ %.136, %drange_contains_layer.exit.thread ]
  %.03749 = phi i32 [ -1, %.lr.ph ], [ %.138, %drange_contains_layer.exit.thread ]
  %16 = load ptr, ptr %1, align 8
  %17 = getelementptr ptr, ptr %16, i64 %indvars.iv
  %18 = load ptr, ptr %17, align 8
  %19 = getelementptr inbounds nuw i8, ptr %18, i64 60
  %20 = load i32, ptr %19, align 4
  %21 = icmp eq i32 %.03749, %20
  br i1 %21, label %22, label %46

22:                                               ; preds = %15
  br i1 %.03550, label %23, label %drange_contains_layer.exit.thread

23:                                               ; preds = %22
  br i1 %.not, label %44, label %24

24:                                               ; preds = %23
  br i1 %3, label %25, label %41

25:                                               ; preds = %24
  %26 = getelementptr inbounds nuw i8, ptr %18, i64 40
  %27 = load ptr, ptr %26, align 8
  %28 = getelementptr inbounds nuw i8, ptr %18, i64 8
  %29 = load i32, ptr %28, align 8
  %30 = tail call i32 @tvb_captured_length_remaining(ptr noundef %27, i32 noundef %29) #11
  %31 = icmp slt i32 %30, 0
  br i1 %31, label %dfvm_get_raw_fvalue.exit, label %32

32:                                               ; preds = %25
  %33 = getelementptr inbounds nuw i8, ptr %18, i64 12
  %34 = load i32, ptr %33, align 4
  %spec.select.i = tail call i32 @llvm.smin.i32(i32 %34, i32 %30)
  %35 = tail call ptr @g_byte_array_new() #11
  %36 = load ptr, ptr %26, align 8
  %37 = load i32, ptr %28, align 8
  %38 = tail call ptr @tvb_get_ptr(ptr noundef %36, i32 noundef %37, i32 noundef %spec.select.i) #11
  %39 = tail call ptr @g_byte_array_append(ptr noundef %35, ptr noundef %38, i32 noundef %spec.select.i) #11
  %40 = tail call ptr @fvalue_new(i32 noundef 30) #11
  tail call void @fvalue_set_byte_array(ptr noundef %40, ptr noundef %35) #11
  br label %dfvm_get_raw_fvalue.exit

41:                                               ; preds = %24
  %42 = getelementptr inbounds nuw i8, ptr %18, i64 48
  %43 = load ptr, ptr %42, align 8
  br label %dfvm_get_raw_fvalue.exit

dfvm_get_raw_fvalue.exit:                         ; preds = %32, %25, %41
  %.033 = phi ptr [ %43, %41 ], [ %40, %32 ], [ null, %25 ]
  tail call void @df_cell_append(ptr noundef nonnull %0, ptr noundef %.033) #11
  br label %44

44:                                               ; preds = %dfvm_get_raw_fvalue.exit, %23
  %45 = add i64 %.03251, 1
  br label %drange_contains_layer.exit.thread

46:                                               ; preds = %15
  %.02028.i = load ptr, ptr %2, align 8
  %.not29.not.i = icmp eq ptr %.02028.i, null
  br i1 %.not29.not.i, label %drange_contains_layer.exit.thread, label %.lr.ph.i

47:                                               ; preds = %64
  %48 = getelementptr inbounds nuw i8, ptr %.02030.i, i64 8
  %.020.i = load ptr, ptr %48, align 8
  %.not.not.i = icmp eq ptr %.020.i, null
  br i1 %.not.not.i, label %drange_contains_layer.exit.thread, label %.lr.ph.i, !llvm.loop !28

.lr.ph.i:                                         ; preds = %46, %47
  %.02030.i = phi ptr [ %.020.i, %47 ], [ %.02028.i, %46 ]
  %49 = load ptr, ptr %.02030.i, align 8
  %50 = load i32, ptr %49, align 4
  %51 = icmp slt i32 %50, 0
  %52 = select i1 %51, i32 %14, i32 0
  %.019.i = add i32 %52, %50
  %53 = getelementptr inbounds nuw i8, ptr %49, i64 12
  %54 = load i32, ptr %53, align 4
  switch i32 %54, label %63 [
    i32 1, label %55
    i32 2, label %60
    i32 3, label %64
  ]

55:                                               ; preds = %.lr.ph.i
  %56 = getelementptr inbounds nuw i8, ptr %49, i64 4
  %57 = load i32, ptr %56, align 4
  %58 = add i32 %.019.i, -1
  %59 = add i32 %58, %57
  br label %64

60:                                               ; preds = %.lr.ph.i
  %61 = getelementptr inbounds nuw i8, ptr %49, i64 8
  %62 = load i32, ptr %61, align 4
  br label %64

63:                                               ; preds = %.lr.ph.i
  tail call void (ptr, i32, ptr, i64, ptr, ptr, ...) @ws_log_fatal_full(ptr noundef nonnull @.str.57, i32 noundef 7, ptr noundef nonnull @.str.58, i64 noundef 769, ptr noundef nonnull @__func__.drange_contains_layer, ptr noundef nonnull @.str.60) #13
  unreachable

64:                                               ; preds = %60, %55, %.lr.ph.i
  %.0.i43 = phi i32 [ %59, %55 ], [ %62, %60 ], [ 2147483647, %.lr.ph.i ]
  %.not25.i = icmp sge i32 %20, %.019.i
  %.not26.i = icmp sle i32 %20, %.0.i43
  %or.cond.not.i = select i1 %.not25.i, i1 %.not26.i, i1 false
  br i1 %or.cond.not.i, label %65, label %47

65:                                               ; preds = %64
  br i1 %.not, label %86, label %66

66:                                               ; preds = %65
  br i1 %3, label %67, label %83

67:                                               ; preds = %66
  %68 = getelementptr inbounds nuw i8, ptr %18, i64 40
  %69 = load ptr, ptr %68, align 8
  %70 = getelementptr inbounds nuw i8, ptr %18, i64 8
  %71 = load i32, ptr %70, align 8
  %72 = tail call i32 @tvb_captured_length_remaining(ptr noundef %69, i32 noundef %71) #11
  %73 = icmp slt i32 %72, 0
  br i1 %73, label %dfvm_get_raw_fvalue.exit46, label %74

74:                                               ; preds = %67
  %75 = getelementptr inbounds nuw i8, ptr %18, i64 12
  %76 = load i32, ptr %75, align 4
  %spec.select.i44 = tail call i32 @llvm.smin.i32(i32 %76, i32 %72)
  %77 = tail call ptr @g_byte_array_new() #11
  %78 = load ptr, ptr %68, align 8
  %79 = load i32, ptr %70, align 8
  %80 = tail call ptr @tvb_get_ptr(ptr noundef %78, i32 noundef %79, i32 noundef %spec.select.i44) #11
  %81 = tail call ptr @g_byte_array_append(ptr noundef %77, ptr noundef %80, i32 noundef %spec.select.i44) #11
  %82 = tail call ptr @fvalue_new(i32 noundef 30) #11
  tail call void @fvalue_set_byte_array(ptr noundef %82, ptr noundef %77) #11
  br label %dfvm_get_raw_fvalue.exit46

83:                                               ; preds = %66
  %84 = getelementptr inbounds nuw i8, ptr %18, i64 48
  %85 = load ptr, ptr %84, align 8
  br label %dfvm_get_raw_fvalue.exit46

dfvm_get_raw_fvalue.exit46:                       ; preds = %74, %67, %83
  %.134 = phi ptr [ %85, %83 ], [ %82, %74 ], [ null, %67 ]
  tail call void @df_cell_append(ptr noundef nonnull %0, ptr noundef %.134) #11
  br label %86

86:                                               ; preds = %dfvm_get_raw_fvalue.exit46, %65
  %87 = add i64 %.03251, 1
  br label %drange_contains_layer.exit.thread

drange_contains_layer.exit.thread:                ; preds = %47, %46, %44, %22, %86
  %.138 = phi i32 [ %.03749, %44 ], [ %.03749, %22 ], [ %20, %86 ], [ %20, %46 ], [ %20, %47 ]
  %.136 = phi i1 [ true, %44 ], [ false, %22 ], [ true, %86 ], [ false, %46 ], [ false, %47 ]
  %.1 = phi i64 [ %45, %44 ], [ %.03251, %22 ], [ %87, %86 ], [ %.03251, %46 ], [ %.03251, %47 ]
  %indvars.iv.next = add nuw nsw i64 %indvars.iv, 1
  %88 = load i32, ptr %5, align 8
  %89 = zext i32 %88 to i64
  %90 = icmp samesign ult i64 %indvars.iv.next, %89
  br i1 %90, label %15, label %._crit_edge, !llvm.loop !37

._crit_edge:                                      ; preds = %drange_contains_layer.exit.thread, %4
  %.032.lcssa = phi i64 [ 0, %4 ], [ %.1, %drange_contains_layer.exit.thread ]
  ret i64 %.032.lcssa
}